; Function Attrs: mustprogress nounwind willreturn uwtable
define dso_local void @Ppmd8_Free(ptr noundef captures(none) initializes((48, 52)) %0) #3 {
  %2 = getelementptr inbounds nuw i8, ptr %0, i64 56
  %3 = load ptr, ptr %2, align 8, !tbaa !4
  tail call void @free(ptr noundef %3) #13
  %4 = getelementptr inbounds nuw i8, ptr %0, i64 48
  store i32 0, ptr %4, align 8, !tbaa !20
  store ptr null, ptr %2, align 8, !tbaa !4
  ret void
}